(dp1
S'output'
p2
S"<type 'exceptions.AttributeError'> 'calendar' object has no attribute 'iframe'"
p3
sS'layer'
p4
S'/home/ze0/Workspace/SUTBackOffice/web2py/applications/SUTBackoffice/views/default/calendar.html'
p5
sS'code'
p6
S'response.write(\'<!DOCTYPE html>\\n<!--\\nThis is a starter template page. Use this page to start your new project from\\nscratch. This page gets rid of all links and provides the needed markup only.\\n-->\\n<html>\\n  <head>\\n    <meta charset="UTF-8">\\n    <title>\', escape=False)\nresponse.write(response.title or request.application)\nresponse.write(\'</title>\\n    <meta content=\\\'width=device-width, initial-scale=1, maximum-scale=1, user-scalable=no\\\' name=\\\'viewport\\\'>\\n    <!-- Bootstrap 3.3.2 -->\\n    <link href="\', escape=False)\nresponse.write(URL(\'static\',\'bootstrap/css/bootstrap.min.css\'))\nresponse.write(\'" rel="stylesheet" type="text/css" />\\n    <!-- Font Awesome Icons -->\\n    <link href="https://maxcdn.bootstrapcdn.com/font-awesome/4.3.0/css/font-awesome.min.css" rel="stylesheet" type="text/css" />\\n    <!-- Ionicons -->\\n    <link href="https://code.ionicframework.com/ionicons/2.0.1/css/ionicons.min.css" rel="stylesheet" type="text/css" />\\n    <!-- Theme style -->\\n    <link href="\', escape=False)\nresponse.write(URL(\'static\',\'dist/css/AdminLTE.min.css\'))\nresponse.write(\'" rel="stylesheet" type="text/css" />\\n    <!-- AdminLTE Skins. We have chosen the skin-blue for this starter\\n          page. However, you can choose any other skin. Make sure you\\n          apply the skin class to the body tag so the changes take effect.\\n    -->\\n    <link href="\', escape=False)\nresponse.write(URL(\'static\',\'dist/css/skins/skin-red.min.css\'))\nresponse.write(\'" rel="stylesheet" type="text/css" />\\n    \', escape=False)\nresponse.write(\'\\n    <!-- HTML5 Shim and Respond.js IE8 support of HTML5 elements and media queries -->\\n    <!-- WARNING: Respond.js doesn\\\'t work if you view the page via file:// -->\\n    <!--[if lt IE 9]>\\n        <script src="https://oss.maxcdn.com/libs/html5shiv/3.7.0/html5shiv.js"></script>\\n        <script src="https://oss.maxcdn.com/libs/respond.js/1.3.0/respond.min.js"></script>\\n    <![endif]-->\\n  </head>\\n  <!--\\n  BODY TAG OPTIONS:\\n  =================\\n  Apply one or more of the following classes to get the\\n  desired effect\\n  |---------------------------------------------------------|\\n  | SKINS         | skin-blue                               |\\n  |               | skin-black                              |\\n  |               | skin-purple                             |\\n  |               | skin-yellow                             |\\n  |               | skin-red                                |\\n  |               | skin-green                              |\\n  |---------------------------------------------------------|\\n  |LAYOUT OPTIONS | fixed                                   |\\n  |               | layout-boxed                            |\\n  |               | layout-top-nav                          |\\n  |               | sidebar-collapse                        |\\n  |               | sidebar-mini                            |\\n  |---------------------------------------------------------|\\n  -->\\n  <body class="skin-red sidebar-mini">\\n    <div class="wrapper">\\n\\n      <!-- Main Header -->\\n      <header class="main-header">\\n\\n        <!-- Logo -->\\n        <a href="#" class="logo">\\n          <!-- mini logo for sidebar mini 50x50 pixels -->\\n          <span class="logo-mini"><b>S</b>UT</span>\\n          <!-- logo for regular state and mobile devices -->\\n          <span class="logo-lg"><b>SUT</b>Helper</span>\\n        </a>\\n\\n        <!-- Header Navbar -->\\n        <nav class="navbar navbar-static-top" role="navigation">\\n          <!-- Sidebar toggle button-->\\n          <a href="#" class="sidebar-toggle" data-toggle="offcanvas" role="button">\\n            <span class="sr-only">Toggle navigation</span>\\n          </a>\\n          <!-- Navbar Right Menu -->\\n          <div class="navbar-custom-menu">\\n            \\n          </div>\\n        </nav>\\n      </header>\\n      <!-- Left side column. contains the logo and sidebar -->\\n      <aside class="main-sidebar">\\n\\n        <!-- sidebar: style can be found in sidebar.less -->\\n        <section class="sidebar">\\n\\n          <!-- Sidebar user panel (optional) -->\\n          <!-- <div class="user-panel">\\n            <div class="pull-left image">\\n              <img src="dist/img/user2-160x160.jpg" class="img-circle" alt="User Image" />\\n            </div>\\n            <div class="pull-left info">\\n              <p>Alexander Pierce</p>\\n              <a href="#"><i class="fa fa-circle text-success"></i> Online</a>\\n            </div>\\n          </div> -->\\n\\n          <!-- search form (Optional) -->\\n          <!-- <form action="#" method="get" class="sidebar-form">\\n            <div class="input-group">\\n              <input type="text" name="q" class="form-control" placeholder="Search..."/>\\n              <span class="input-group-btn">\\n                <button type=\\\'submit\\\' name=\\\'search\\\' id=\\\'search-btn\\\' class="btn btn-flat"><i class="fa fa-search"></i></button>\\n              </span>\\n            </div>\\n          </form> -->\\n          <!-- /.search form -->\\n\\n          <!-- Sidebar Menu -->\\n          <ul class="sidebar-menu">\\n            <li class="header">Main Activities</li>\\n            <!-- Optionally, you can add icons to the links -->\\n            <li \', escape=False)\nif response.active == 1 :\n    response.write(\'class="active"\', escape=False)\n    pass\nresponse.write(\'><a href="\', escape=False)\nresponse.write(URL(\'default\', \'index\'))\nresponse.write(\'"><i class=\\\'fa fa-tachometer\\\'></i> <span>Dashboard</span></a></li>\\n            <li \', escape=False)\nif response.active == 2 :\n    response.write(\'class="active"\', escape=False)\n    pass\nresponse.write(\'><a href="\', escape=False)\nresponse.write(URL(\'default\', \'rooms\'))\nresponse.write(\'"><i class=\\\'fa fa-building-o\\\'></i> <span>Rooms</span></a></li>\\n            \\n            <li class="treeview \', escape=False)\nif response.active >= 32 and response.active <= 36 :\n    response.write(\'active\', escape=False)\n    pass\nresponse.write(\'">\\n              <a href="#"><i class=\\\'fa fa-plus-square\\\'></i> <span>Administration Information</span> <i class="fa fa-angle-left pull-right"></i></a>\\n              <ul class="treeview-menu">\\n                <li \', escape=False)\nif response.active == 33 :\n    response.write(\'class="active"\', escape=False)\n    pass\nresponse.write(\'><a href="\', escape=False)\nresponse.write(URL(\'default\', \'dormitory\'))\nresponse.write(\'">Dormitory</a></li>\\n                <li \', escape=False)\nif response.active == 34 :\n    response.write(\'class="active"\', escape=False)\n    pass\nresponse.write(\'><a href="\', escape=False)\nresponse.write(URL(\'default\', \'immigration\'))\nresponse.write(\'">Immigration</a></li>\\n                <li \', escape=False)\nif response.active == 35 :\n    response.write(\'class="active"\', escape=False)\n    pass\nresponse.write(\'><a href="\', escape=False)\nresponse.write(URL(\'default\', \'transport\'))\nresponse.write(\'">Transport</a></li>\\n                <li \', escape=False)\nif response.active == 36 :\n    response.write(\'class="active"\', escape=False)\n    pass\nresponse.write(\'><a href="\', escape=False)\nresponse.write(URL(\'default\', \'university\'))\nresponse.write(\'">University</a></li>\\n              </ul>\\n            </li>\\n            <li \', escape=False)\nif response.active == 4 :\n    response.write(\'class="active"\', escape=False)\n    pass\nresponse.write(\'><a href="\', escape=False)\nresponse.write(URL(\'default\', \'contacts\'))\nresponse.write(\'"><i class=\\\'fa fa-users\\\'></i> <span>Contact</span></a></li>\\n            <li \', escape=False)\nif response.active == 5 :\n    response.write(\'class="active"\', escape=False)\n    pass\nresponse.write(\'><a href="\', escape=False)\nresponse.write(URL(\'default\', \'vkInternationalCooperation\'))\nresponse.write(\'"><i class=\\\'fa fa-vk\\\'></i> <span>VK Int. Cooperation</span></a></li>\\n              <li \', escape=False)\nif response.active == 6 :\n    response.write(\'class="active"\', escape=False)\n    pass\nresponse.write(\'><a href="\', escape=False)\nresponse.write(URL(\'default\', \'vkNewsEnglish\'))\nresponse.write(\'"><i class=\\\'fa fa-vk\\\'></i> <span>VK News English</span></a></li>\\n              <li \', escape=False)\nif response.active == 7 :\n    response.write(\'class="active"\', escape=False)\n    pass\nresponse.write(\'><a href="\', escape=False)\nresponse.write(URL(\'default\', \'calendars\'))\nresponse.write(\'"><i class=\\\'fa fa-vk\\\'></i> <span>Schedules</span></a></li>\\n          </ul><!-- /.sidebar-menu -->\\n        </section>\\n        <!-- /.sidebar -->\\n      </aside>\\n\\n      <!-- Content Wrapper. Contains page content -->\\n      <div class="content-wrapper">\\n        <!-- Content Header (Page header) -->\\n        <section class="content-header">\\n          <h1>\\n            \', escape=False)\nresponse.write(response.pageTitle)\nresponse.write(\'\\n            <small>\', escape=False)\nresponse.write(response.pageSubtitle)\nresponse.write(\'</small>\\n          </h1>\\n          <ol class="breadcrumb">\\n            <li><a href="#"><i class="fa fa-dashboard"></i> Level</a></li>\\n            <li class="active">Here</li>\\n          </ol>\\n        </section>\\n\\n        <!-- Main content -->\\n        <section class="content">\\n\\n\\n            \', escape=False)\nresponse.write(\'\\n            \', escape=False)\nresponse.write(\'\\n\\n<section class="col-lg-13 connectedSortable ui-sortable">\\n    <div class="box box-info">\\n        <div class="box-header ui-sortable-handle" style="cursor: move;">\\n            <H2>Schedule List</H2> <a href="\', escape=False)\nresponse.write(URL(\'default\', \'newContact\'))\nresponse.write(\'"><button class="btn">New</button></a>\\n\\n        </div>\\n        <div class="box-body">\\n\\n            <table class="table table-striped">\\n                <tbody>\\n                <tr>\\n\\n                    <th>Name</th>\\n                    <th>Iframe</th>\\n                </tr>\\n                \', escape=False)\nfor item in items:\n    response.write(\'\\n                <tr>\\n                    <td>\', escape=False)\n    response.write(item.name)\n    response.write(\'</td>\\n                    <td>\', escape=False)\n    response.write(item.iframe)\n    response.write(\'</td>\\n                    <td>\\n                        <div class="btn-group">\\n                            <a href="\', escape=False)\n    response.write(URL(\'default\', \'editContact\', args=item.objectId))\n    response.write(\'"><button class="btn btn-primary">edit</button></a>\\n                            <a href="\', escape=False)\n    response.write(URL(\'default\', \'deleteContact\', args=item.objectId))\n    response.write(\'"><button class="btn btn-warning">delete</button></a>\\n                        </div>\\n                    </td>\\n                </tr>\\n\\n                \', escape=False)\n    pass\nresponse.write(\'\\n\\n                </tbody></table>\\n        </div>\\n    </div>\\n</section>\\n\', escape=False)\nresponse.write(\'\\n            \', escape=False)\nresponse.write(\'\\n\\n\\n        </section><!-- /.content -->\\n      </div><!-- /.content-wrapper -->\\n\\n      <!-- Main Footer -->\\n      <footer class="main-footer">\\n        <!-- To the right -->\\n        <div class="pull-right hidden-xs">\\n          In case of problems, please contact <a href="mailto:julien@my42.eu">Aupetit Julien</a>\\n        </div>\\n        <!-- Default to the left -->\\n        <strong>Copyright &copy; 2015 <a href="http://my42.eu">Ze0</a>.</strong> All rights reserved.\\n      </footer>\\n\\n    </div><!-- ./wrapper -->\\n\\n    <!-- REQUIRED JS SCRIPTS -->\\n    \', escape=False)\nresponse.write(\'\\n    <!-- jQuery 2.1.3 -->\\n    <script src="\', escape=False)\nresponse.write(URL(\'static\',\'plugins/jQuery/jQuery-2.1.3.min.js\'))\nresponse.write(\'"></script>\\n    <!-- Bootstrap 3.3.2 JS -->\\n    <script src="\', escape=False)\nresponse.write(URL(\'static\',\'bootstrap/js/bootstrap.min.js\'))\nresponse.write(\'" type="text/javascript"></script>\\n    <!-- AdminLTE App -->\\n    <script src="\', escape=False)\nresponse.write(URL(\'static\',\'dist/js/app.min.js\'))\nresponse.write(\'" type="text/javascript"></script>\\n\\n    <!-- Optionally, you can add Slimscroll and FastClick plugins.\\n          Both of these plugins are recommended to enhance the\\n          user experience. Slimscroll is required when using the\\n          fixed layout. -->\\n  </body>\\n</html>\', escape=False)'
p7
sS'snapshot'
p8
(dp9
sS'traceback'
p10
S'Traceback (most recent call last):\n  File "/home/ze0/Workspace/SUTBackOffice/web2py/gluon/restricted.py", line 227, in restricted\n    exec ccode in environment\n  File "/home/ze0/Workspace/SUTBackOffice/web2py/applications/SUTBackoffice/views/default/calendar.html", line 87, in <module>\n  File "/usr/local/lib/python2.7/dist-packages/parse_rest/datatypes.py", line 330, in __getattr__\n    return object.__getattribute__(self, attr) #preserve default if attr not exists\nAttributeError: \'calendar\' object has no attribute \'iframe\'\n'
p11
s.